target datalayout = "e-m:e-p270:32:32-p271:32:32-p272:64:64-i64:64-i128:128-f80:128-n8:16:32:64-S128"
target triple = "x86_64-pc-linux-gnu"

%struct.Curl_cfilter = type { ptr, ptr, ptr, ptr, i32, i8 }
%struct.cf_call_data = type { ptr }
%struct.cf_h2_proxy_ctx = type { ptr, %struct.cf_call_data, %struct.bufq, %struct.bufq, %struct.tunnel_stream, i32, i32, i8 }
%struct.bufq = type { ptr, ptr, ptr, ptr, i64, i64, i64, i32 }
%struct.tunnel_stream = type { ptr, %struct.bufq, %struct.bufq, ptr, i32, i32, i32, i8 }

@.str.61 = private unnamed_addr constant [9 x i8] c"shutdown\00", align 1
@.str.62 = private unnamed_addr constant [39 x i8] c"nghttp2_submit_goaway() failed: %s(%d)\00", align 1

; Function Attrs: nounwind uwtable
define internal i32 @cf_h2_proxy_shutdown(ptr noundef %0, ptr noundef %1, ptr noundef %2) #0 {
  %4 = alloca i32, align 4
  %5 = alloca ptr, align 8
  %6 = alloca ptr, align 8
  %7 = alloca ptr, align 8
  %8 = alloca ptr, align 8
  %9 = alloca %struct.cf_call_data, align 8
  %10 = alloca i32, align 4
  %11 = alloca i32, align 4
  %12 = alloca i32, align 4
  store ptr %0, ptr %5, align 8, !tbaa !4
  store ptr %1, ptr %6, align 8, !tbaa !9
  store ptr %2, ptr %7, align 8, !tbaa !20
  call void @llvm.lifetime.start.p0(i64 8, ptr %8) #6
  %13 = load ptr, ptr %5, align 8, !tbaa !4
  %14 = getelementptr inbounds nuw %struct.Curl_cfilter, ptr %13, i32 0, i32 2
  %15 = load ptr, ptr %14, align 8, !tbaa !11
  store ptr %15, ptr %8, align 8, !tbaa !16
  call void @llvm.lifetime.start.p0(i64 8, ptr %9) #6
  call void @llvm.lifetime.start.p0(i64 4, ptr %10) #6
  call void @llvm.lifetime.start.p0(i64 4, ptr %11) #6
  %16 = load ptr, ptr %5, align 8, !tbaa !4
  %17 = getelementptr inbounds nuw %struct.Curl_cfilter, ptr %16, i32 0, i32 5
  %18 = load i8, ptr %17, align 4
  %19 = and i8 %18, 1
  %20 = zext i8 %19 to i32
  %21 = icmp ne i32 %20, 0
  br i1 %21, label %22, label %42

22:                                               ; preds = %3
  %23 = load ptr, ptr %8, align 8, !tbaa !16
  %24 = getelementptr inbounds nuw %struct.cf_h2_proxy_ctx, ptr %23, i32 0, i32 0
  %25 = load ptr, ptr %24, align 8, !tbaa !40
  %26 = icmp ne ptr %25, null
  br i1 %26, label %27, label %42

27:                                               ; preds = %22
  %28 = load ptr, ptr %5, align 8, !tbaa !4
  %29 = getelementptr inbounds nuw %struct.Curl_cfilter, ptr %28, i32 0, i32 5
  %30 = load i8, ptr %29, align 4
  %31 = lshr i8 %30, 1
  %32 = and i8 %31, 1
  %33 = zext i8 %32 to i32
  %34 = icmp ne i32 %33, 0
  br i1 %34, label %42, label %35

35:                                               ; preds = %27
  %36 = load ptr, ptr %8, align 8, !tbaa !16
  %37 = getelementptr inbounds nuw %struct.cf_h2_proxy_ctx, ptr %36, i32 0, i32 7
  %38 = load i8, ptr %37, align 8
  %39 = and i8 %38, 1
  %40 = zext i8 %39 to i32
  %41 = icmp ne i32 %40, 0
  br i1 %41, label %42, label %44

42:                                               ; preds = %35, %27, %22, %3
  %43 = load ptr, ptr %7, align 8, !tbaa !20
  store i8 1, ptr %43, align 1, !tbaa !18
  store i32 0, ptr %4, align 4
  store i32 1, ptr %12, align 4
  br label %161

44:                                               ; preds = %35
  br label %45

45:                                               ; preds = %44
  %46 = load ptr, ptr %5, align 8, !tbaa !4
  %47 = getelementptr inbounds nuw %struct.Curl_cfilter, ptr %46, i32 0, i32 2
  %48 = load ptr, ptr %47, align 8, !tbaa !11
  %49 = getelementptr inbounds nuw %struct.cf_h2_proxy_ctx, ptr %48, i32 0, i32 1
  call void @llvm.memcpy.p0.p0.i64(ptr align 8 %9, ptr align 8 %49, i64 8, i1 false), !tbaa.struct !28
  %50 = load ptr, ptr %6, align 8, !tbaa !9
  %51 = load ptr, ptr %5, align 8, !tbaa !4
  %52 = getelementptr inbounds nuw %struct.Curl_cfilter, ptr %51, i32 0, i32 2
  %53 = load ptr, ptr %52, align 8, !tbaa !11
  %54 = getelementptr inbounds nuw %struct.cf_h2_proxy_ctx, ptr %53, i32 0, i32 1
  %55 = getelementptr inbounds nuw %struct.cf_call_data, ptr %54, i32 0, i32 0
  store ptr %50, ptr %55, align 8, !tbaa !29
  br label %56

56:                                               ; preds = %45
  br label %57

57:                                               ; preds = %56
  %58 = load ptr, ptr %8, align 8, !tbaa !16
  %59 = getelementptr inbounds nuw %struct.cf_h2_proxy_ctx, ptr %58, i32 0, i32 7
  %60 = load i8, ptr %59, align 8
  %61 = lshr i8 %60, 2
  %62 = and i8 %61, 1
  %63 = zext i8 %62 to i32
  %64 = icmp ne i32 %63, 0
  br i1 %64, label %83, label %65

65:                                               ; preds = %57
  %66 = load ptr, ptr %8, align 8, !tbaa !16
  %67 = getelementptr inbounds nuw %struct.cf_h2_proxy_ctx, ptr %66, i32 0, i32 0
  %68 = load ptr, ptr %67, align 8, !tbaa !40
  %69 = call i32 @nghttp2_submit_goaway(ptr noundef %68, i8 noundef zeroext 0, i32 noundef 0, i32 noundef 0, ptr noundef @.str.61, i64 noundef 9)
  store i32 %69, ptr %11, align 4, !tbaa !22
  %70 = load i32, ptr %11, align 4, !tbaa !22
  %71 = icmp ne i32 %70, 0
  br i1 %71, label %72, label %77

72:                                               ; preds = %65
  %73 = load ptr, ptr %6, align 8, !tbaa !9
  %74 = load i32, ptr %11, align 4, !tbaa !22
  %75 = call ptr @nghttp2_strerror(i32 noundef %74)
  %76 = load i32, ptr %11, align 4, !tbaa !22
  call void (ptr, ptr, ...) @Curl_failf(ptr noundef %73, ptr noundef @.str.62, ptr noundef %75, i32 noundef %76)
  store i32 55, ptr %10, align 4, !tbaa !22
  br label %135

77:                                               ; preds = %65
  %78 = load ptr, ptr %8, align 8, !tbaa !16
  %79 = getelementptr inbounds nuw %struct.cf_h2_proxy_ctx, ptr %78, i32 0, i32 7
  %80 = load i8, ptr %79, align 8
  %81 = and i8 %80, -5
  %82 = or i8 %81, 4
  store i8 %82, ptr %79, align 8
  br label %83

83:                                               ; preds = %77, %57
  store i32 0, ptr %10, align 4, !tbaa !22
  %84 = load ptr, ptr %8, align 8, !tbaa !16
  %85 = getelementptr inbounds nuw %struct.cf_h2_proxy_ctx, ptr %84, i32 0, i32 0
  %86 = load ptr, ptr %85, align 8, !tbaa !40
  %87 = call i32 @nghttp2_session_want_write(ptr noundef %86)
  %88 = icmp ne i32 %87, 0
  br i1 %88, label %89, label %93

89:                                               ; preds = %83
  %90 = load ptr, ptr %5, align 8, !tbaa !4
  %91 = load ptr, ptr %6, align 8, !tbaa !9
  %92 = call i32 @proxy_h2_progress_egress(ptr noundef %90, ptr noundef %91)
  store i32 %92, ptr %10, align 4, !tbaa !22
  br label %93

93:                                               ; preds = %89, %83
  %94 = load i32, ptr %10, align 4, !tbaa !22
  %95 = icmp ne i32 %94, 0
  br i1 %95, label %106, label %96

96:                                               ; preds = %93
  %97 = load ptr, ptr %8, align 8, !tbaa !16
  %98 = getelementptr inbounds nuw %struct.cf_h2_proxy_ctx, ptr %97, i32 0, i32 0
  %99 = load ptr, ptr %98, align 8, !tbaa !40
  %100 = call i32 @nghttp2_session_want_read(ptr noundef %99)
  %101 = icmp ne i32 %100, 0
  br i1 %101, label %102, label %106

102:                                              ; preds = %96
  %103 = load ptr, ptr %5, align 8, !tbaa !4
  %104 = load ptr, ptr %6, align 8, !tbaa !9
  %105 = call i32 @proxy_h2_progress_ingress(ptr noundef %103, ptr noundef %104)
  store i32 %105, ptr %10, align 4, !tbaa !22
  br label %106

106:                                              ; preds = %102, %96, %93
  %107 = load ptr, ptr %8, align 8, !tbaa !16
  %108 = getelementptr inbounds nuw %struct.cf_h2_proxy_ctx, ptr %107, i32 0, i32 7
  %109 = load i8, ptr %108, align 8
  %110 = and i8 %109, 1
  %111 = zext i8 %110 to i32
  %112 = icmp ne i32 %111, 0
  br i1 %112, label %131, label %113

113:                                              ; preds = %106
  %114 = load i32, ptr %10, align 4, !tbaa !22
  %115 = icmp ne i32 %114, 0
  br i1 %115, label %129, label %116

116:                                              ; preds = %113
  %117 = load ptr, ptr %8, align 8, !tbaa !16
  %118 = getelementptr inbounds nuw %struct.cf_h2_proxy_ctx, ptr %117, i32 0, i32 0
  %119 = load ptr, ptr %118, align 8, !tbaa !40
  %120 = call i32 @nghttp2_session_want_write(ptr noundef %119)
  %121 = icmp ne i32 %120, 0
  br i1 %121, label %129, label %122

122:                                              ; preds = %116
  %123 = load ptr, ptr %8, align 8, !tbaa !16
  %124 = getelementptr inbounds nuw %struct.cf_h2_proxy_ctx, ptr %123, i32 0, i32 0
  %125 = load ptr, ptr %124, align 8, !tbaa !40
  %126 = call i32 @nghttp2_session_want_read(ptr noundef %125)
  %127 = icmp ne i32 %126, 0
  %128 = xor i1 %127, true
  br label %129

129:                                              ; preds = %122, %116, %113
  %130 = phi i1 [ false, %116 ], [ false, %113 ], [ %128, %122 ]
  br label %131

131:                                              ; preds = %129, %106
  %132 = phi i1 [ true, %106 ], [ %130, %129 ]
  %133 = load ptr, ptr %7, align 8, !tbaa !20
  %134 = zext i1 %132 to i8
  store i8 %134, ptr %133, align 1, !tbaa !18
  br label %135

135:                                              ; preds = %131, %72
  br label %136

136:                                              ; preds = %135
  %137 = load ptr, ptr %5, align 8, !tbaa !4
  %138 = getelementptr inbounds nuw %struct.Curl_cfilter, ptr %137, i32 0, i32 2
  %139 = load ptr, ptr %138, align 8, !tbaa !11
  %140 = getelementptr inbounds nuw %struct.cf_h2_proxy_ctx, ptr %139, i32 0, i32 1
  call void @llvm.memcpy.p0.p0.i64(ptr align 8 %140, ptr align 8 %9, i64 8, i1 false), !tbaa.struct !28
  br label %141

141:                                              ; preds = %136
  br label %142

142:                                              ; preds = %141
  %143 = load i32, ptr %10, align 4, !tbaa !22
  %144 = icmp ne i32 %143, 0
  br i1 %144, label %149, label %145

145:                                              ; preds = %142
  %146 = load ptr, ptr %7, align 8, !tbaa !20
  %147 = load i8, ptr %146, align 1, !tbaa !18, !range !26, !noundef !27
  %148 = trunc i8 %147 to i1
  br label %149

149:                                              ; preds = %145, %142
  %150 = phi i1 [ true, %142 ], [ %148, %145 ]
  %151 = zext i1 %150 to i32
  %152 = load ptr, ptr %5, align 8, !tbaa !4
  %153 = getelementptr inbounds nuw %struct.Curl_cfilter, ptr %152, i32 0, i32 5
  %154 = trunc i32 %151 to i8
  %155 = load i8, ptr %153, align 4
  %156 = and i8 %154, 1
  %157 = shl i8 %156, 1
  %158 = and i8 %155, -3
  %159 = or i8 %158, %157
  store i8 %159, ptr %153, align 4
  %160 = load i32, ptr %10, align 4, !tbaa !22
  store i32 %160, ptr %4, align 4
  store i32 1, ptr %12, align 4
  br label %161

161:                                              ; preds = %149, %42
  call void @llvm.lifetime.end.p0(i64 4, ptr %11) #6
  call void @llvm.lifetime.end.p0(i64 4, ptr %10) #6
  call void @llvm.lifetime.end.p0(i64 8, ptr %9) #6
  call void @llvm.lifetime.end.p0(i64 8, ptr %8) #6
  %162 = load i32, ptr %4, align 4
  ret i32 %162
}