; Function Attrs: nounwind uwtable
define internal i32 @cf_h2_proxy_shutdown(ptr noundef %0, ptr noundef %1, ptr noundef writeonly captures(none) %2) #0 {
  %4 = getelementptr inbounds nuw i8, ptr %0, i64 16
  %5 = load ptr, ptr %4, align 8, !tbaa !4
  %6 = getelementptr inbounds nuw i8, ptr %0, i64 36
  %7 = load i8, ptr %6, align 4
  %8 = and i8 %7, 1
  %.not = icmp eq i8 %8, 0
  br i1 %.not, label %16, label %9

9:                                                ; preds = %3
  %10 = load ptr, ptr %5, align 8, !tbaa !15
  %.not36 = icmp ne ptr %10, null
  %11 = and i8 %7, 2
  %.not37 = icmp eq i8 %11, 0
  %or.cond = and i1 %.not37, %.not36
  br i1 %or.cond, label %12, label %16

12:                                               ; preds = %9
  %13 = getelementptr inbounds nuw i8, ptr %5, i64 312
  %14 = load i8, ptr %13, align 8
  %15 = and i8 %14, 1
  %.not38 = icmp eq i8 %15, 0
  br i1 %.not38, label %17, label %16

16:                                               ; preds = %12, %9, %3
  store i8 1, ptr %2, align 1, !tbaa !29
  br label %62

17:                                               ; preds = %12
  %18 = getelementptr inbounds nuw i8, ptr %5, i64 8
  %.sroa.0.0.copyload = load ptr, ptr %18, align 8, !tbaa !13
  store ptr %1, ptr %18, align 8, !tbaa !34
  %19 = and i8 %14, 4
  %.not39 = icmp eq i8 %19, 0
  br i1 %.not39, label %20, label %28

20:                                               ; preds = %17
  %21 = tail call i32 @nghttp2_submit_goaway(ptr noundef nonnull %10, i8 noundef zeroext 0, i32 noundef 0, i32 noundef 0, ptr noundef nonnull @.str.61, i64 noundef 9) #7
  %.not40 = icmp eq i32 %21, 0
  br i1 %.not40, label %25, label %.thread60

.thread60:                                        ; preds = %20
  %22 = tail call ptr @nghttp2_strerror(i32 noundef %21) #7
  tail call void (ptr, ptr, ...) @Curl_failf(ptr noundef %1, ptr noundef nonnull @.str.62, ptr noundef %22, i32 noundef %21) #7
  %23 = load ptr, ptr %4, align 8, !tbaa !4
  %24 = getelementptr inbounds nuw i8, ptr %23, i64 8
  store ptr %.sroa.0.0.copyload, ptr %24, align 8, !tbaa !13
  br label %57

25:                                               ; preds = %20
  %26 = load i8, ptr %13, align 8
  %27 = or i8 %26, 4
  store i8 %27, ptr %13, align 8
  %.pre = load ptr, ptr %5, align 8, !tbaa !15
  br label %28

28:                                               ; preds = %25, %17
  %29 = phi ptr [ %.pre, %25 ], [ %10, %17 ]
  %30 = tail call i32 @nghttp2_session_want_write(ptr noundef %29) #7
  %.not41 = icmp eq i32 %30, 0
  br i1 %.not41, label %.thread, label %31

31:                                               ; preds = %28
  %32 = tail call fastcc i32 @proxy_h2_progress_egress(ptr noundef nonnull %0, ptr noundef %1)
  %.not42 = icmp eq i32 %32, 0
  br i1 %.not42, label %.thread, label %37

.thread:                                          ; preds = %28, %31
  %33 = load ptr, ptr %5, align 8, !tbaa !15
  %34 = tail call i32 @nghttp2_session_want_read(ptr noundef %33) #7
  %.not43 = icmp eq i32 %34, 0
  br i1 %.not43, label %.thread51, label %35

35:                                               ; preds = %.thread
  %36 = tail call fastcc i32 @proxy_h2_progress_ingress(ptr noundef nonnull %0, ptr noundef %1)
  br label %37

37:                                               ; preds = %35, %31
  %.1 = phi i32 [ %32, %31 ], [ %36, %35 ]
  %38 = load i8, ptr %13, align 8
  %39 = and i8 %38, 1
  %.not44 = icmp eq i8 %39, 0
  br i1 %.not44, label %42, label %54

.thread51:                                        ; preds = %.thread
  %40 = load i8, ptr %13, align 8
  %41 = and i8 %40, 1
  %.not4453 = icmp eq i8 %41, 0
  br i1 %.not4453, label %.thread56, label %.thread64

42:                                               ; preds = %37
  %.not45 = icmp eq i32 %.1, 0
  br i1 %.not45, label %.thread56, label %.thread68

.thread68:                                        ; preds = %42
  store i8 0, ptr %2, align 1, !tbaa !29
  %43 = load ptr, ptr %4, align 8, !tbaa !4
  %44 = getelementptr inbounds nuw i8, ptr %43, i64 8
  store ptr %.sroa.0.0.copyload, ptr %44, align 8, !tbaa !13
  br label %57

.thread56:                                        ; preds = %.thread51, %42
  %45 = load ptr, ptr %5, align 8, !tbaa !15
  %46 = tail call i32 @nghttp2_session_want_write(ptr noundef %45) #7
  %.not46 = icmp eq i32 %46, 0
  br i1 %.not46, label %47, label %.thread64

47:                                               ; preds = %.thread56
  %48 = load ptr, ptr %5, align 8, !tbaa !15
  %49 = tail call i32 @nghttp2_session_want_read(ptr noundef %48) #7
  %.not47 = icmp eq i32 %49, 0
  %50 = zext i1 %.not47 to i8
  br label %.thread64

.thread64:                                        ; preds = %.thread56, %47, %.thread51
  %.ph = phi i8 [ 1, %.thread51 ], [ %50, %47 ], [ 0, %.thread56 ]
  store i8 %.ph, ptr %2, align 1, !tbaa !29
  %51 = load ptr, ptr %4, align 8, !tbaa !4
  %52 = getelementptr inbounds nuw i8, ptr %51, i64 8
  store ptr %.sroa.0.0.copyload, ptr %52, align 8, !tbaa !13
  %53 = shl nuw nsw i8 %.ph, 1
  br label %57

54:                                               ; preds = %37
  store i8 1, ptr %2, align 1, !tbaa !29
  %55 = load ptr, ptr %4, align 8, !tbaa !4
  %56 = getelementptr inbounds nuw i8, ptr %55, i64 8
  store ptr %.sroa.0.0.copyload, ptr %56, align 8, !tbaa !13
  br label %57

57:                                               ; preds = %54, %.thread64, %.thread68, %.thread60
  %.263 = phi i32 [ 55, %.thread60 ], [ %.1, %.thread68 ], [ 0, %.thread64 ], [ %.1, %54 ]
  %58 = phi i8 [ 2, %.thread60 ], [ 2, %.thread68 ], [ %53, %.thread64 ], [ 2, %54 ]
  %59 = load i8, ptr %6, align 4
  %60 = and i8 %59, -3
  %61 = or i8 %60, %58
  store i8 %61, ptr %6, align 4
  br label %62

62:                                               ; preds = %57, %16
  %.0 = phi i32 [ 0, %16 ], [ %.263, %57 ]
  ret i32 %.0
}